; Function Attrs: mustprogress uwtable
define double @cvGetSpatialMoment(ptr noundef readonly %0, i32 noundef %1, i32 noundef %2) local_unnamed_addr #2 personality ptr @__gxx_personality_v0 {
  %4 = alloca %"class.std::__cxx11::basic_string", align 8
  %5 = alloca %"class.std::allocator", align 1
  %6 = alloca %"class.std::__cxx11::basic_string", align 8
  %7 = alloca %"class.std::allocator", align 1
  %8 = add nsw i32 %2, %1
  %.not = icmp eq ptr %0, null
  br i1 %.not, label %9, label %16

9:                                                ; preds = %3
  call void @_ZNSaIcEC1Ev(ptr noundef nonnull align 1 dereferenceable(1) %5) #15
  invoke void @_ZNSt7__cxx1112basic_stringIcSt11char_traitsIcESaIcEEC1EPKcRKS3_(ptr noundef nonnull align 8 dereferenceable(32) %4, ptr noundef nonnull @.str.3, ptr noundef nonnull align 1 dereferenceable(1) %5)
          to label %10 unwind label %12

10:                                               ; preds = %9
  invoke void @_ZN2cv5errorEiRKNSt7__cxx1112basic_stringIcSt11char_traitsIcESaIcEEEPKcS9_i(i32 noundef -27, ptr noundef nonnull align 8 dereferenceable(32) %4, ptr noundef nonnull @__func__.cvGetSpatialMoment, ptr noundef nonnull @.str.1, i32 noundef 768) #16
          to label %11 unwind label %14

11:                                               ; preds = %10
  unreachable

12:                                               ; preds = %9
  %13 = landingpad { ptr, i32 }
          cleanup
  br label %37

14:                                               ; preds = %10
  %15 = landingpad { ptr, i32 }
          cleanup
  call void @_ZNSt7__cxx1112basic_stringIcSt11char_traitsIcESaIcEED1Ev(ptr noundef nonnull align 8 dereferenceable(32) %4) #15
  br label %37

16:                                               ; preds = %3
  %17 = or i32 %2, %1
  %18 = icmp slt i32 %17, 0
  %19 = icmp sgt i32 %8, 3
  %or.cond = select i1 %18, i1 true, i1 %19
  br i1 %or.cond, label %20, label %27

20:                                               ; preds = %16
  call void @_ZNSaIcEC1Ev(ptr noundef nonnull align 1 dereferenceable(1) %7) #15
  invoke void @_ZNSt7__cxx1112basic_stringIcSt11char_traitsIcESaIcEEC1EPKcRKS3_(ptr noundef nonnull align 8 dereferenceable(32) %6, ptr noundef nonnull @.str.3, ptr noundef nonnull align 1 dereferenceable(1) %7)
          to label %21 unwind label %23

21:                                               ; preds = %20
  invoke void @_ZN2cv5errorEiRKNSt7__cxx1112basic_stringIcSt11char_traitsIcESaIcEEEPKcS9_i(i32 noundef -211, ptr noundef nonnull align 8 dereferenceable(32) %6, ptr noundef nonnull @__func__.cvGetSpatialMoment, ptr noundef nonnull @.str.1, i32 noundef 770) #16
          to label %22 unwind label %25

22:                                               ; preds = %21
  unreachable

23:                                               ; preds = %20
  %24 = landingpad { ptr, i32 }
          cleanup
  br label %37

25:                                               ; preds = %21
  %26 = landingpad { ptr, i32 }
          cleanup
  call void @_ZNSt7__cxx1112basic_stringIcSt11char_traitsIcESaIcEED1Ev(ptr noundef nonnull align 8 dereferenceable(32) %6) #15
  br label %37

27:                                               ; preds = %16
  %28 = ashr i32 %8, 1
  %29 = icmp sgt i32 %8, 2
  %30 = select i1 %29, i32 2, i32 0
  %31 = add i32 %8, %2
  %32 = add i32 %31, %28
  %33 = add i32 %32, %30
  %34 = sext i32 %33 to i64
  %35 = getelementptr inbounds double, ptr %0, i64 %34
  %36 = load double, ptr %35, align 8
  ret double %36

37:                                               ; preds = %23, %25, %12, %14
  %.sink = phi ptr [ %5, %14 ], [ %5, %12 ], [ %7, %25 ], [ %7, %23 ]
  %.pn19.pn = phi { ptr, i32 } [ %15, %14 ], [ %13, %12 ], [ %26, %25 ], [ %24, %23 ]
  call void @_ZNSaIcED1Ev(ptr noundef nonnull align 1 dereferenceable(1) %.sink) #15
  resume { ptr, i32 } %.pn19.pn
}